target datalayout = "e-m:e-p270:32:32-p271:32:32-p272:64:64-i64:64-i128:128-f80:128-n8:16:32:64-S128"
target triple = "x86_64-pc-linux-gnu"

%struct._mac_is_fragment = type { ptr, i32, i32, i16, i8, ptr }
%struct.body_parts = type { ptr, ptr, ptr }
%struct.mac_is_sdu = type { i32, i16, ptr, i32, ptr }

@.str.129 = private unnamed_addr constant [29 x i8] c"%s:%u: failed assertion \22%s\22\00", align 1
@.str.130 = private unnamed_addr constant [34 x i8] c"epan/dissectors/packet-umts_mac.c\00", align 1
@MAX_TSN = internal global i32 64, align 4
@mac_is_sdus = internal global ptr null, align 8
@.str.146 = private unnamed_addr constant [40 x i8] c"body_parts_array[i]->tail != ((void*)0)\00", align 1
@.str.147 = private unnamed_addr constant [41 x i8] c"sdu->length+frag->length <= total_length\00", align 1

; Function Attrs: alwaysinline nounwind
define internal ptr @memcpy.inline(ptr noalias %0, ptr noalias %1, i64 %2) #8 {
  %4 = alloca ptr, align 8
  %5 = alloca ptr, align 8
  %6 = alloca i64, align 8
  store ptr %0, ptr %4, align 8
  store ptr %1, ptr %5, align 8
  store i64 %2, ptr %6, align 8
  %7 = load ptr, ptr %4, align 8
  %8 = load ptr, ptr %5, align 8
  %9 = load i64, ptr %6, align 8
  %10 = load ptr, ptr %4, align 8
  %11 = call i64 @llvm.objectsize.i64.p0(ptr %10, i1 false, i1 true, i1 true)
  %12 = call ptr @__memcpy_chk(ptr noundef %7, ptr noundef %8, i64 noundef %9, i64 noundef %11) #11
  ret ptr %12
}

; Function Attrs: null_pointer_is_valid sspstrong uwtable
define internal void @mac_is_copy(ptr noundef %0, ptr noundef %1, i32 noundef %2, i1 noundef zeroext %3) #1 {
  %5 = alloca ptr, align 8
  %6 = alloca ptr, align 8
  %7 = alloca i32, align 4
  %8 = alloca i8, align 1
  store ptr %0, ptr %5, align 8
  store ptr %1, ptr %6, align 8
  store i32 %2, ptr %7, align 4
  %9 = zext i1 %3 to i8
  store i8 %9, ptr %8, align 1
  %10 = load ptr, ptr %5, align 8
  %11 = getelementptr inbounds nuw %struct.mac_is_sdu, ptr %10, i32 0, i32 3
  %12 = load i32, ptr %11, align 8
  %13 = load ptr, ptr %6, align 8
  %14 = getelementptr inbounds nuw %struct._mac_is_fragment, ptr %13, i32 0, i32 1
  %15 = load i32, ptr %14, align 8
  %16 = add i32 %12, %15
  %17 = load i32, ptr %7, align 4
  %18 = icmp ule i32 %16, %17
  br i1 %18, label %19, label %20

19:                                               ; preds = %4
  br label %22

20:                                               ; preds = %4
  call void (ptr, ...) @proto_report_dissector_bug(ptr noundef @.str.129, ptr noundef @.str.130, i32 noundef 707, ptr noundef @.str.147) #13
  unreachable

21:                                               ; No predecessors!
  br label %22

22:                                               ; preds = %21, %19
  %23 = load i8, ptr %8, align 1, !range !6, !noundef !7
  %24 = trunc i8 %23 to i1
  br i1 %24, label %25, label %52

25:                                               ; preds = %22
  %26 = load ptr, ptr %5, align 8
  %27 = getelementptr inbounds nuw %struct.mac_is_sdu, ptr %26, i32 0, i32 2
  %28 = load ptr, ptr %27, align 8
  %29 = load i32, ptr %7, align 4
  %30 = zext i32 %29 to i64
  %31 = getelementptr i8, ptr %28, i64 %30
  %32 = load ptr, ptr %6, align 8
  %33 = getelementptr inbounds nuw %struct._mac_is_fragment, ptr %32, i32 0, i32 1
  %34 = load i32, ptr %33, align 8
  %35 = zext i32 %34 to i64
  %36 = sub i64 0, %35
  %37 = getelementptr i8, ptr %31, i64 %36
  %38 = load ptr, ptr %5, align 8
  %39 = getelementptr inbounds nuw %struct.mac_is_sdu, ptr %38, i32 0, i32 3
  %40 = load i32, ptr %39, align 8
  %41 = zext i32 %40 to i64
  %42 = sub i64 0, %41
  %43 = getelementptr i8, ptr %37, i64 %42
  %44 = load ptr, ptr %6, align 8
  %45 = getelementptr inbounds nuw %struct._mac_is_fragment, ptr %44, i32 0, i32 0
  %46 = load ptr, ptr %45, align 8
  %47 = load ptr, ptr %6, align 8
  %48 = getelementptr inbounds nuw %struct._mac_is_fragment, ptr %47, i32 0, i32 1
  %49 = load i32, ptr %48, align 8
  %50 = zext i32 %49 to i64
  %51 = call ptr @memcpy.inline(ptr noundef %43, ptr noundef %46, i64 noundef %50) #11
  br label %69

52:                                               ; preds = %22
  %53 = load ptr, ptr %5, align 8
  %54 = getelementptr inbounds nuw %struct.mac_is_sdu, ptr %53, i32 0, i32 2
  %55 = load ptr, ptr %54, align 8
  %56 = load ptr, ptr %5, align 8
  %57 = getelementptr inbounds nuw %struct.mac_is_sdu, ptr %56, i32 0, i32 3
  %58 = load i32, ptr %57, align 8
  %59 = zext i32 %58 to i64
  %60 = getelementptr i8, ptr %55, i64 %59
  %61 = load ptr, ptr %6, align 8
  %62 = getelementptr inbounds nuw %struct._mac_is_fragment, ptr %61, i32 0, i32 0
  %63 = load ptr, ptr %62, align 8
  %64 = load ptr, ptr %6, align 8
  %65 = getelementptr inbounds nuw %struct._mac_is_fragment, ptr %64, i32 0, i32 1
  %66 = load i32, ptr %65, align 8
  %67 = zext i32 %66 to i64
  %68 = call ptr @memcpy.inline(ptr noundef %60, ptr noundef %63, i64 noundef %67) #11
  br label %69

69:                                               ; preds = %52, %25
  %70 = load ptr, ptr %6, align 8
  %71 = getelementptr inbounds nuw %struct._mac_is_fragment, ptr %70, i32 0, i32 1
  %72 = load i32, ptr %71, align 8
  %73 = load ptr, ptr %5, align 8
  %74 = getelementptr inbounds nuw %struct.mac_is_sdu, ptr %73, i32 0, i32 3
  %75 = load i32, ptr %74, align 8
  %76 = add i32 %75, %72
  store i32 %76, ptr %74, align 8
  %77 = call ptr @wmem_file_scope()
  %78 = load ptr, ptr %6, align 8
  %79 = getelementptr inbounds nuw %struct._mac_is_fragment, ptr %78, i32 0, i32 0
  %80 = load ptr, ptr %79, align 8
  call void @wmem_free(ptr noundef %77, ptr noundef %80)
  ret void
}

; Function Attrs: null_pointer_is_valid sspstrong uwtable
define internal ptr @reassemble(ptr noundef %0, ptr noundef %1, i16 noundef zeroext %2, i32 noundef %3, ptr noundef %4, i32 noundef %5) #1 {
  %7 = alloca ptr, align 8
  %8 = alloca ptr, align 8
  %9 = alloca i16, align 2
  %10 = alloca i32, align 4
  %11 = alloca ptr, align 8
  %12 = alloca i32, align 4
  %13 = alloca ptr, align 8
  %14 = alloca ptr, align 8
  %15 = alloca i16, align 2
  %16 = alloca ptr, align 8
  %17 = alloca ptr, align 8
  store ptr %0, ptr %7, align 8
  store ptr %1, ptr %8, align 8
  store i16 %2, ptr %9, align 2
  store i32 %3, ptr %10, align 4
  store ptr %4, ptr %11, align 8
  store i32 %5, ptr %12, align 4
  call void @llvm.lifetime.start.p0(i64 8, ptr %13) #11
  call void @llvm.lifetime.start.p0(i64 8, ptr %14) #11
  call void @llvm.lifetime.start.p0(i64 2, ptr %15) #11
  call void @llvm.lifetime.start.p0(i64 8, ptr %16) #11
  %18 = load ptr, ptr @mac_is_sdus, align 8
  %19 = load ptr, ptr %11, align 8
  %20 = call ptr @g_hash_table_lookup(ptr noundef %18, ptr noundef %19)
  store ptr %20, ptr %16, align 8
  %21 = load ptr, ptr %16, align 8
  %22 = icmp eq ptr %21, null
  br i1 %22, label %23, label %33

23:                                               ; preds = %6
  call void @llvm.lifetime.start.p0(i64 8, ptr %17) #11
  %24 = call ptr @g_hash_table_new(ptr noundef @mac_is_fragment_hash, ptr noundef @mac_is_fragment_equal)
  store ptr %24, ptr %16, align 8
  %25 = call ptr @wmem_file_scope()
  %26 = call noalias ptr @wmem_alloc(ptr noundef %25, i64 noundef 8) #12
  store ptr %26, ptr %17, align 8
  %27 = load ptr, ptr %17, align 8
  %28 = load ptr, ptr %11, align 8
  call void @llvm.memcpy.p0.p0.i64(ptr align 4 %27, ptr align 4 %28, i64 8, i1 false)
  %29 = load ptr, ptr @mac_is_sdus, align 8
  %30 = load ptr, ptr %17, align 8
  %31 = load ptr, ptr %16, align 8
  %32 = call i32 @g_hash_table_insert(ptr noundef %29, ptr noundef %30, ptr noundef %31)
  call void @llvm.lifetime.end.p0(i64 8, ptr %17) #11
  br label %33

33:                                               ; preds = %23, %6
  %34 = call ptr @wmem_file_scope()
  %35 = call noalias ptr @wmem_alloc(ptr noundef %34, i64 noundef 32) #12
  store ptr %35, ptr %13, align 8
  %36 = load ptr, ptr %13, align 8
  %37 = getelementptr inbounds nuw %struct.mac_is_sdu, ptr %36, i32 0, i32 3
  store i32 0, ptr %37, align 8
  %38 = call ptr @wmem_file_scope()
  %39 = load i32, ptr %10, align 4
  %40 = zext i32 %39 to i64
  %41 = call noalias ptr @wmem_alloc(ptr noundef %38, i64 noundef %40) #12
  %42 = load ptr, ptr %13, align 8
  %43 = getelementptr inbounds nuw %struct.mac_is_sdu, ptr %42, i32 0, i32 2
  store ptr %41, ptr %43, align 8
  %44 = load ptr, ptr %8, align 8
  %45 = load i16, ptr %9, align 2
  %46 = zext i16 %45 to i64
  %47 = getelementptr ptr, ptr %44, i64 %46
  %48 = load ptr, ptr %47, align 8
  %49 = getelementptr inbounds nuw %struct.body_parts, ptr %48, i32 0, i32 0
  %50 = load ptr, ptr %49, align 8
  store ptr %50, ptr %14, align 8
  %51 = load ptr, ptr %16, align 8
  %52 = load ptr, ptr %14, align 8
  %53 = load ptr, ptr %13, align 8
  %54 = call i32 @g_hash_table_insert(ptr noundef %51, ptr noundef %52, ptr noundef %53)
  %55 = load ptr, ptr %8, align 8
  %56 = load i16, ptr %9, align 2
  %57 = zext i16 %56 to i64
  %58 = getelementptr ptr, ptr %55, i64 %57
  %59 = load ptr, ptr %58, align 8
  %60 = getelementptr inbounds nuw %struct.body_parts, ptr %59, i32 0, i32 0
  store ptr null, ptr %60, align 8
  %61 = load ptr, ptr %13, align 8
  %62 = load ptr, ptr %14, align 8
  %63 = load i32, ptr %10, align 4
  call void @mac_is_copy(ptr noundef %61, ptr noundef %62, i32 noundef %63, i1 noundef zeroext false)
  %64 = load ptr, ptr %14, align 8
  %65 = load ptr, ptr %13, align 8
  %66 = getelementptr inbounds nuw %struct.mac_is_sdu, ptr %65, i32 0, i32 4
  store ptr %64, ptr %66, align 8
  %67 = load i32, ptr %12, align 4
  %68 = load ptr, ptr %13, align 8
  %69 = getelementptr inbounds nuw %struct.mac_is_sdu, ptr %68, i32 0, i32 0
  store i32 %67, ptr %69, align 8
  %70 = load i16, ptr %9, align 2
  %71 = zext i16 %70 to i32
  %72 = add i32 %71, 1
  %73 = load i32, ptr @MAX_TSN, align 4
  %74 = urem i32 %72, %73
  %75 = trunc i32 %74 to i16
  store i16 %75, ptr %15, align 2
  br label %76

76:                                               ; preds = %108, %33
  %77 = load ptr, ptr %8, align 8
  %78 = load i16, ptr %15, align 2
  %79 = zext i16 %78 to i64
  %80 = getelementptr ptr, ptr %77, i64 %79
  %81 = load ptr, ptr %80, align 8
  %82 = getelementptr inbounds nuw %struct.body_parts, ptr %81, i32 0, i32 1
  %83 = load ptr, ptr %82, align 8
  %84 = icmp ne ptr %83, null
  br i1 %84, label %85, label %115

85:                                               ; preds = %76
  %86 = load ptr, ptr %8, align 8
  %87 = load i16, ptr %15, align 2
  %88 = zext i16 %87 to i64
  %89 = getelementptr ptr, ptr %86, i64 %88
  %90 = load ptr, ptr %89, align 8
  %91 = getelementptr inbounds nuw %struct.body_parts, ptr %90, i32 0, i32 1
  %92 = load ptr, ptr %91, align 8
  %93 = load ptr, ptr %14, align 8
  %94 = getelementptr inbounds nuw %struct._mac_is_fragment, ptr %93, i32 0, i32 5
  store ptr %92, ptr %94, align 8
  store ptr %92, ptr %14, align 8
  %95 = load ptr, ptr %16, align 8
  %96 = load ptr, ptr %14, align 8
  %97 = load ptr, ptr %13, align 8
  %98 = call i32 @g_hash_table_insert(ptr noundef %95, ptr noundef %96, ptr noundef %97)
  %99 = load ptr, ptr %8, align 8
  %100 = load i16, ptr %15, align 2
  %101 = zext i16 %100 to i64
  %102 = getelementptr ptr, ptr %99, i64 %101
  %103 = load ptr, ptr %102, align 8
  %104 = getelementptr inbounds nuw %struct.body_parts, ptr %103, i32 0, i32 1
  store ptr null, ptr %104, align 8
  %105 = load ptr, ptr %13, align 8
  %106 = load ptr, ptr %14, align 8
  %107 = load i32, ptr %10, align 4
  call void @mac_is_copy(ptr noundef %105, ptr noundef %106, i32 noundef %107, i1 noundef zeroext false)
  br label %108

108:                                              ; preds = %85
  %109 = load i16, ptr %15, align 2
  %110 = zext i16 %109 to i32
  %111 = add i32 %110, 1
  %112 = load i32, ptr @MAX_TSN, align 4
  %113 = urem i32 %111, %112
  %114 = trunc i32 %113 to i16
  store i16 %114, ptr %15, align 2
  br label %76, !llvm.loop !13

115:                                              ; preds = %76
  %116 = load ptr, ptr %8, align 8
  %117 = load i16, ptr %15, align 2
  %118 = zext i16 %117 to i64
  %119 = getelementptr ptr, ptr %116, i64 %118
  %120 = load ptr, ptr %119, align 8
  %121 = getelementptr inbounds nuw %struct.body_parts, ptr %120, i32 0, i32 2
  %122 = load ptr, ptr %121, align 8
  %123 = icmp ne ptr %122, null
  br i1 %123, label %124, label %125

124:                                              ; preds = %115
  br label %127

125:                                              ; preds = %115
  call void (ptr, ...) @proto_report_dissector_bug(ptr noundef @.str.129, ptr noundef @.str.130, i32 noundef 756, ptr noundef @.str.146) #13
  unreachable

126:                                              ; No predecessors!
  br label %127

127:                                              ; preds = %126, %124
  %128 = load ptr, ptr %8, align 8
  %129 = load i16, ptr %15, align 2
  %130 = zext i16 %129 to i64
  %131 = getelementptr ptr, ptr %128, i64 %130
  %132 = load ptr, ptr %131, align 8
  %133 = getelementptr inbounds nuw %struct.body_parts, ptr %132, i32 0, i32 2
  %134 = load ptr, ptr %133, align 8
  %135 = load ptr, ptr %14, align 8
  %136 = getelementptr inbounds nuw %struct._mac_is_fragment, ptr %135, i32 0, i32 5
  store ptr %134, ptr %136, align 8
  %137 = load ptr, ptr %16, align 8
  %138 = load ptr, ptr %14, align 8
  %139 = getelementptr inbounds nuw %struct._mac_is_fragment, ptr %138, i32 0, i32 5
  %140 = load ptr, ptr %139, align 8
  %141 = load ptr, ptr %13, align 8
  %142 = call i32 @g_hash_table_insert(ptr noundef %137, ptr noundef %140, ptr noundef %141)
  %143 = load ptr, ptr %8, align 8
  %144 = load i16, ptr %15, align 2
  %145 = zext i16 %144 to i64
  %146 = getelementptr ptr, ptr %143, i64 %145
  %147 = load ptr, ptr %146, align 8
  %148 = getelementptr inbounds nuw %struct.body_parts, ptr %147, i32 0, i32 2
  store ptr null, ptr %148, align 8
  %149 = load i16, ptr %15, align 2
  %150 = load ptr, ptr %13, align 8
  %151 = getelementptr inbounds nuw %struct.mac_is_sdu, ptr %150, i32 0, i32 1
  store i16 %149, ptr %151, align 4
  %152 = load ptr, ptr %13, align 8
  %153 = load ptr, ptr %14, align 8
  %154 = getelementptr inbounds nuw %struct._mac_is_fragment, ptr %153, i32 0, i32 5
  %155 = load ptr, ptr %154, align 8
  %156 = load i32, ptr %10, align 4
  call void @mac_is_copy(ptr noundef %152, ptr noundef %155, i32 noundef %156, i1 noundef zeroext false)
  %157 = load ptr, ptr %7, align 8
  %158 = load ptr, ptr %13, align 8
  %159 = getelementptr inbounds nuw %struct.mac_is_sdu, ptr %158, i32 0, i32 2
  %160 = load ptr, ptr %159, align 8
  %161 = load ptr, ptr %13, align 8
  %162 = getelementptr inbounds nuw %struct.mac_is_sdu, ptr %161, i32 0, i32 3
  %163 = load i32, ptr %162, align 8
  %164 = load ptr, ptr %13, align 8
  %165 = getelementptr inbounds nuw %struct.mac_is_sdu, ptr %164, i32 0, i32 3
  %166 = load i32, ptr %165, align 8
  %167 = call ptr @tvb_new_child_real_data(ptr noundef %157, ptr noundef %160, i32 noundef %163, i32 noundef %166)
  call void @llvm.lifetime.end.p0(i64 8, ptr %16) #11
  call void @llvm.lifetime.end.p0(i64 2, ptr %15) #11
  call void @llvm.lifetime.end.p0(i64 8, ptr %14) #11
  call void @llvm.lifetime.end.p0(i64 8, ptr %13) #11
  ret ptr %167
}