; Function Attrs: null_pointer_is_valid sspstrong uwtable
define internal fastcc ptr @reassemble(ptr noundef %0, ptr noundef readonly captures(none) %1, i16 noundef zeroext %2, i32 noundef %3, ptr noundef %4, i32 noundef %5) unnamed_addr #1 {
  %7 = load ptr, ptr @mac_is_sdus, align 8
  %8 = tail call ptr @g_hash_table_lookup(ptr noundef %7, ptr noundef %4)
  %9 = icmp eq ptr %8, null
  br i1 %9, label %10, label %17

10:                                               ; preds = %6
  %11 = tail call ptr @g_hash_table_new(ptr noundef nonnull @mac_is_fragment_hash, ptr noundef nonnull @mac_is_fragment_equal)
  %12 = tail call ptr @wmem_file_scope()
  %13 = tail call noalias dereferenceable_or_null(8) ptr @wmem_alloc(ptr noundef %12, i64 noundef 8) #8
  %14 = load i64, ptr %4, align 4
  store i64 %14, ptr %13, align 4
  %15 = load ptr, ptr @mac_is_sdus, align 8
  %16 = tail call i32 @g_hash_table_insert(ptr noundef %15, ptr noundef %13, ptr noundef %11)
  br label %17

17:                                               ; preds = %10, %6
  %.056 = phi ptr [ %11, %10 ], [ %8, %6 ]
  %18 = tail call ptr @wmem_file_scope()
  %19 = tail call noalias dereferenceable_or_null(32) ptr @wmem_alloc(ptr noundef %18, i64 noundef 32) #8
  %20 = getelementptr inbounds nuw i8, ptr %19, i64 16
  store i32 0, ptr %20, align 8
  %21 = tail call ptr @wmem_file_scope()
  %22 = zext i32 %3 to i64
  %23 = tail call noalias ptr @wmem_alloc(ptr noundef %21, i64 noundef %22) #8
  %24 = getelementptr inbounds nuw i8, ptr %19, i64 8
  store ptr %23, ptr %24, align 8
  %25 = zext i16 %2 to i64
  %26 = getelementptr ptr, ptr %1, i64 %25
  %27 = load ptr, ptr %26, align 8
  %28 = load ptr, ptr %27, align 8
  %29 = tail call i32 @g_hash_table_insert(ptr noundef %.056, ptr noundef %28, ptr noundef %19)
  %30 = load ptr, ptr %26, align 8
  store ptr null, ptr %30, align 8
  %31 = load i32, ptr %20, align 8
  %32 = getelementptr inbounds nuw i8, ptr %28, i64 8
  %33 = load i32, ptr %32, align 8
  %34 = add i32 %33, %31
  %.not.i = icmp ugt i32 %34, %3
  br i1 %.not.i, label %35, label %mac_is_copy.exit

35:                                               ; preds = %17
  tail call void (ptr, ...) @proto_report_dissector_bug(ptr noundef nonnull @.str.129, ptr noundef nonnull @.str.130, i32 noundef 707, ptr noundef nonnull @.str.147) #9
  unreachable

mac_is_copy.exit:                                 ; preds = %17
  %36 = load ptr, ptr %24, align 8
  %37 = zext i32 %31 to i64
  %38 = getelementptr i8, ptr %36, i64 %37
  %39 = load ptr, ptr %28, align 8
  %40 = zext i32 %33 to i64
  tail call void @llvm.memcpy.p0.p0.i64(ptr noundef align 1 %38, ptr noundef align 1 %39, i64 noundef range(i64 0, 4294967296) %40, i1 noundef false) #10
  %41 = load i32, ptr %32, align 8
  %42 = load i32, ptr %20, align 8
  %43 = add i32 %42, %41
  store i32 %43, ptr %20, align 8
  %44 = tail call ptr @wmem_file_scope()
  %45 = load ptr, ptr %28, align 8
  tail call void @wmem_free(ptr noundef %44, ptr noundef %45)
  %46 = getelementptr inbounds nuw i8, ptr %19, i64 24
  store ptr %28, ptr %46, align 8
  store i32 %5, ptr %19, align 8
  %47 = add i16 %2, 1
  %.b61 = load i1, ptr @MAX_TSN, align 4
  %48 = select i1 %.b61, i16 16383, i16 63
  %49 = and i16 %48, %47
  %50 = zext nneg i16 %49 to i64
  %51 = getelementptr ptr, ptr %1, i64 %50
  %52 = load ptr, ptr %51, align 8
  %53 = getelementptr inbounds nuw i8, ptr %52, i64 8
  %54 = load ptr, ptr %53, align 8
  %.not72 = icmp eq ptr %54, null
  br i1 %.not72, label %._crit_edge, label %.lr.ph

.lr.ph:                                           ; preds = %mac_is_copy.exit, %mac_is_copy.exit64
  %55 = phi ptr [ %83, %mac_is_copy.exit64 ], [ %54, %mac_is_copy.exit ]
  %56 = phi ptr [ %80, %mac_is_copy.exit64 ], [ %51, %mac_is_copy.exit ]
  %.074 = phi ptr [ %55, %mac_is_copy.exit64 ], [ %28, %mac_is_copy.exit ]
  %.05773 = phi i16 [ %78, %mac_is_copy.exit64 ], [ %49, %mac_is_copy.exit ]
  %57 = getelementptr inbounds nuw i8, ptr %.074, i64 24
  store ptr %55, ptr %57, align 8
  %58 = tail call i32 @g_hash_table_insert(ptr noundef %.056, ptr noundef nonnull %55, ptr noundef %19)
  %59 = load ptr, ptr %56, align 8
  %60 = getelementptr inbounds nuw i8, ptr %59, i64 8
  store ptr null, ptr %60, align 8
  %61 = load i32, ptr %20, align 8
  %62 = getelementptr inbounds nuw i8, ptr %55, i64 8
  %63 = load i32, ptr %62, align 8
  %64 = add i32 %63, %61
  %.not.i63 = icmp ugt i32 %64, %3
  br i1 %.not.i63, label %65, label %mac_is_copy.exit64

65:                                               ; preds = %.lr.ph
  tail call void (ptr, ...) @proto_report_dissector_bug(ptr noundef nonnull @.str.129, ptr noundef nonnull @.str.130, i32 noundef 707, ptr noundef nonnull @.str.147) #9
  unreachable

mac_is_copy.exit64:                               ; preds = %.lr.ph
  %66 = load ptr, ptr %24, align 8
  %67 = zext i32 %61 to i64
  %68 = getelementptr i8, ptr %66, i64 %67
  %69 = load ptr, ptr %55, align 8
  %70 = zext i32 %63 to i64
  tail call void @llvm.memcpy.p0.p0.i64(ptr noundef align 1 %68, ptr noundef align 1 %69, i64 noundef range(i64 0, 4294967296) %70, i1 noundef false) #10
  %71 = load i32, ptr %62, align 8
  %72 = load i32, ptr %20, align 8
  %73 = add i32 %72, %71
  store i32 %73, ptr %20, align 8
  %74 = tail call ptr @wmem_file_scope()
  %75 = load ptr, ptr %55, align 8
  tail call void @wmem_free(ptr noundef %74, ptr noundef %75)
  %76 = add nuw nsw i16 %.05773, 1
  %.b = load i1, ptr @MAX_TSN, align 4
  %77 = select i1 %.b, i16 16383, i16 63
  %78 = and i16 %77, %76
  %79 = zext nneg i16 %78 to i64
  %80 = getelementptr ptr, ptr %1, i64 %79
  %81 = load ptr, ptr %80, align 8
  %82 = getelementptr inbounds nuw i8, ptr %81, i64 8
  %83 = load ptr, ptr %82, align 8
  %.not = icmp eq ptr %83, null
  br i1 %.not, label %._crit_edge, label %.lr.ph, !llvm.loop !13

._crit_edge:                                      ; preds = %mac_is_copy.exit64, %mac_is_copy.exit
  %.057.lcssa = phi i16 [ %49, %mac_is_copy.exit ], [ %78, %mac_is_copy.exit64 ]
  %.0.lcssa = phi ptr [ %28, %mac_is_copy.exit ], [ %55, %mac_is_copy.exit64 ]
  %.lcssa68 = phi ptr [ %51, %mac_is_copy.exit ], [ %80, %mac_is_copy.exit64 ]
  %.lcssa = phi ptr [ %52, %mac_is_copy.exit ], [ %81, %mac_is_copy.exit64 ]
  %84 = getelementptr inbounds nuw i8, ptr %.lcssa, i64 16
  %85 = load ptr, ptr %84, align 8
  %.not62 = icmp eq ptr %85, null
  br i1 %.not62, label %86, label %87

86:                                               ; preds = %._crit_edge
  tail call void (ptr, ...) @proto_report_dissector_bug(ptr noundef nonnull @.str.129, ptr noundef nonnull @.str.130, i32 noundef 756, ptr noundef nonnull @.str.146) #9
  unreachable

87:                                               ; preds = %._crit_edge
  %88 = getelementptr inbounds nuw i8, ptr %.0.lcssa, i64 24
  store ptr %85, ptr %88, align 8
  %89 = tail call i32 @g_hash_table_insert(ptr noundef %.056, ptr noundef nonnull %85, ptr noundef %19)
  %90 = load ptr, ptr %.lcssa68, align 8
  %91 = getelementptr inbounds nuw i8, ptr %90, i64 16
  store ptr null, ptr %91, align 8
  %92 = getelementptr inbounds nuw i8, ptr %19, i64 4
  store i16 %.057.lcssa, ptr %92, align 4
  %93 = load ptr, ptr %88, align 8
  %94 = load i32, ptr %20, align 8
  %95 = getelementptr inbounds nuw i8, ptr %93, i64 8
  %96 = load i32, ptr %95, align 8
  %97 = add i32 %96, %94
  %.not.i65 = icmp ugt i32 %97, %3
  br i1 %.not.i65, label %98, label %mac_is_copy.exit66

98:                                               ; preds = %87
  tail call void (ptr, ...) @proto_report_dissector_bug(ptr noundef nonnull @.str.129, ptr noundef nonnull @.str.130, i32 noundef 707, ptr noundef nonnull @.str.147) #9
  unreachable

mac_is_copy.exit66:                               ; preds = %87
  %99 = load ptr, ptr %24, align 8
  %100 = zext i32 %94 to i64
  %101 = getelementptr i8, ptr %99, i64 %100
  %102 = load ptr, ptr %93, align 8
  %103 = zext i32 %96 to i64
  tail call void @llvm.memcpy.p0.p0.i64(ptr noundef align 1 %101, ptr noundef align 1 %102, i64 noundef range(i64 0, 4294967296) %103, i1 noundef false) #10
  %104 = load i32, ptr %95, align 8
  %105 = load i32, ptr %20, align 8
  %106 = add i32 %105, %104
  store i32 %106, ptr %20, align 8
  %107 = tail call ptr @wmem_file_scope()
  %108 = load ptr, ptr %93, align 8
  tail call void @wmem_free(ptr noundef %107, ptr noundef %108)
  %109 = load ptr, ptr %24, align 8
  %110 = load i32, ptr %20, align 8
  %111 = tail call ptr @tvb_new_child_real_data(ptr noundef %0, ptr noundef %109, i32 noundef %110, i32 noundef %110)
  ret ptr %111
}